target datalayout = "e-m:e-p270:32:32-p271:32:32-p272:64:64-i64:64-i128:128-f80:128-n8:16:32:64-S128"
target triple = "x86_64-pc-linux-gnu"

%"class.std::__1::chrono::year" = type { i16 }

@.str.16 = private unnamed_addr constant [43 x i8] c"corrupt tzdb year: expected 'min' or 'max'\00", align 1
@.str.17 = private unnamed_addr constant [49 x i8] c"corrupt tzdb year: year is less than the minimum\00", align 1
@.str.18 = private unnamed_addr constant [52 x i8] c"corrupt tzdb year: year is greater than the maximum\00", align 1

; Function Attrs: inlinehint mustprogress nounwind uwtable
define linkonce_odr hidden void @_ZNSt3__16chrono4yearC2B8ne210000Ei(ptr noundef nonnull align 2 dereferenceable(2) %0, i32 noundef %1) unnamed_addr #3 comdat align 2 {
  %3 = alloca ptr, align 8
  %4 = alloca i32, align 4
  store ptr %0, ptr %3, align 8, !tbaa !255
  store i32 %1, ptr %4, align 4, !tbaa !25
  %5 = load ptr, ptr %3, align 8
  %6 = getelementptr inbounds nuw %"class.std::__1::chrono::year", ptr %5, i32 0, i32 0
  %7 = load i32, ptr %4, align 4, !tbaa !25
  %8 = trunc i32 %7 to i16
  store i16 %8, ptr %6, align 2, !tbaa !257
  ret void
}

; Function Attrs: inlinehint mustprogress nounwind uwtable
define linkonce_odr hidden noundef i32 @_ZNKSt3__16chrono4yearcviB8ne210000Ev(ptr noundef nonnull align 2 dereferenceable(2) %0) #3 comdat align 2 {
  %2 = alloca ptr, align 8
  store ptr %0, ptr %2, align 8, !tbaa !255
  %3 = load ptr, ptr %2, align 8
  %4 = getelementptr inbounds nuw %"class.std::__1::chrono::year", ptr %3, i32 0, i32 0
  %5 = load i16, ptr %4, align 2, !tbaa !257
  %6 = sext i16 %5 to i32
  ret i32 %6
}

; Function Attrs: inlinehint mustprogress nounwind uwtable
define linkonce_odr hidden i16 @_ZNSt3__16chrono4year3maxB8ne210000Ev() #3 comdat align 2 {
  %1 = alloca %"class.std::__1::chrono::year", align 2
  call void @_ZNSt3__16chrono4yearC2B8ne210000Ei(ptr noundef nonnull align 2 dereferenceable(2) %1, i32 noundef 32767) #4
  %2 = getelementptr inbounds nuw %"class.std::__1::chrono::year", ptr %1, i32 0, i32 0
  %3 = load i16, ptr %2, align 2
  ret i16 %3
}

; Function Attrs: inlinehint mustprogress nounwind uwtable
define linkonce_odr hidden i16 @_ZNSt3__16chrono4year3minB8ne210000Ev() #3 comdat align 2 {
  %1 = alloca %"class.std::__1::chrono::year", align 2
  call void @_ZNSt3__16chrono4yearC2B8ne210000Ei(ptr noundef nonnull align 2 dereferenceable(2) %1, i32 noundef -32767) #4
  %2 = getelementptr inbounds nuw %"class.std::__1::chrono::year", ptr %1, i32 0, i32 0
  %3 = load i16, ptr %2, align 2
  ret i16 %3
}

; Function Attrs: mustprogress uwtable
define internal i16 @_ZNSt3__16chronoL18__parse_year_valueB8ne210000ERNS_13basic_istreamIcNS_11char_traitsIcEEEE(ptr noundef nonnull align 8 dereferenceable(16) %0) #0 {
  %2 = alloca %"class.std::__1::chrono::year", align 2
  %3 = alloca ptr, align 8
  %4 = alloca i8, align 1
  %5 = alloca i64, align 8
  %6 = alloca %"class.std::__1::chrono::year", align 2
  store ptr %0, ptr %3, align 8, !tbaa !27
  call void @llvm.lifetime.start.p0(i64 1, ptr %4) #4
  %7 = load ptr, ptr %3, align 8, !tbaa !27
  %8 = call noundef i32 @_ZNSt3__113basic_istreamIcNS_11char_traitsIcEEE4peekEv(ptr noundef nonnull align 8 dereferenceable(16) %7)
  %9 = icmp eq i32 %8, 45
  %10 = zext i1 %9 to i8
  store i8 %10, ptr %4, align 1, !tbaa !63
  %11 = load i8, ptr %4, align 1, !tbaa !63, !range !65, !noundef !66
  %12 = trunc i8 %11 to i1
  %13 = call i1 @llvm.expect.i1(i1 %12, i1 false)
  br i1 %13, label %14, label %17

14:                                               ; preds = %1
  %15 = load ptr, ptr %3, align 8, !tbaa !27
  %16 = call noundef i32 @_ZNSt3__113basic_istreamIcNS_11char_traitsIcEEE3getEv(ptr noundef nonnull align 8 dereferenceable(16) %15)
  br label %17

17:                                               ; preds = %14, %1
  call void @llvm.lifetime.start.p0(i64 8, ptr %5) #4
  %18 = load ptr, ptr %3, align 8, !tbaa !27
  %19 = call noundef i64 @_ZNSt3__16chronoL16__parse_integralB8ne210000ERNS_13basic_istreamIcNS_11char_traitsIcEEEEb(ptr noundef nonnull align 8 dereferenceable(16) %18, i1 noundef zeroext true)
  store i64 %19, ptr %5, align 8, !tbaa !54
  %20 = load i64, ptr %5, align 8, !tbaa !54
  call void @llvm.lifetime.start.p0(i64 2, ptr %6) #4
  %21 = call i16 @_ZNSt3__16chrono4year3maxB8ne210000Ev() #4
  %22 = getelementptr inbounds nuw %"class.std::__1::chrono::year", ptr %6, i32 0, i32 0
  store i16 %21, ptr %22, align 2
  %23 = call noundef i32 @_ZNKSt3__16chrono4yearcviB8ne210000Ev(ptr noundef nonnull align 2 dereferenceable(2) %6) #4
  %24 = sext i32 %23 to i64
  %25 = icmp sgt i64 %20, %24
  call void @llvm.lifetime.end.p0(i64 2, ptr %6) #4
  br i1 %25, label %26, label %31

26:                                               ; preds = %17
  %27 = load i8, ptr %4, align 1, !tbaa !63, !range !65, !noundef !66
  %28 = trunc i8 %27 to i1
  br i1 %28, label %29, label %30

29:                                               ; preds = %26
  call void @_ZNSt3__121__throw_runtime_errorEPKc(ptr noundef @.str.17) #24
  unreachable

30:                                               ; preds = %26
  call void @_ZNSt3__121__throw_runtime_errorEPKc(ptr noundef @.str.18) #24
  unreachable

31:                                               ; preds = %17
  %32 = load i8, ptr %4, align 1, !tbaa !63, !range !65, !noundef !66
  %33 = trunc i8 %32 to i1
  br i1 %33, label %34, label %37

34:                                               ; preds = %31
  %35 = load i64, ptr %5, align 8, !tbaa !54
  %36 = sub nsw i64 0, %35
  br label %39

37:                                               ; preds = %31
  %38 = load i64, ptr %5, align 8, !tbaa !54
  br label %39

39:                                               ; preds = %37, %34
  %40 = phi i64 [ %36, %34 ], [ %38, %37 ]
  %41 = trunc i64 %40 to i32
  call void @_ZNSt3__16chrono4yearC2B8ne210000Ei(ptr noundef nonnull align 2 dereferenceable(2) %2, i32 noundef %41) #4
  call void @llvm.lifetime.end.p0(i64 8, ptr %5) #4
  call void @llvm.lifetime.end.p0(i64 1, ptr %4) #4
  %42 = getelementptr inbounds nuw %"class.std::__1::chrono::year", ptr %2, i32 0, i32 0
  %43 = load i16, ptr %42, align 2
  ret i16 %43
}

; Function Attrs: inlinehint mustprogress nounwind willreturn memory(read) uwtable
define available_externally i32 @tolower(i32 noundef %0) #16 {
  %2 = alloca i32, align 4
  store i32 %0, ptr %2, align 4, !tbaa !25
  %3 = load i32, ptr %2, align 4, !tbaa !25
  %4 = icmp sge i32 %3, -128
  br i1 %4, label %5, label %15

5:                                                ; preds = %1
  %6 = load i32, ptr %2, align 4, !tbaa !25
  %7 = icmp slt i32 %6, 256
  br i1 %7, label %8, label %15

8:                                                ; preds = %5
  %9 = call ptr @__ctype_tolower_loc() #28
  %10 = load ptr, ptr %9, align 8, !tbaa !88
  %11 = load i32, ptr %2, align 4, !tbaa !25
  %12 = sext i32 %11 to i64
  %13 = getelementptr inbounds i32, ptr %10, i64 %12
  %14 = load i32, ptr %13, align 4, !tbaa !25
  br label %17

15:                                               ; preds = %5, %1
  %16 = load i32, ptr %2, align 4, !tbaa !25
  br label %17

17:                                               ; preds = %15, %8
  %18 = phi i32 [ %14, %8 ], [ %16, %15 ]
  ret i32 %18
}

; Function Attrs: mustprogress uwtable
define internal i16 @_ZNSt3__16chronoL12__parse_yearB8ne210000ERNS_13basic_istreamIcNS_11char_traitsIcEEEE(ptr noundef nonnull align 8 dereferenceable(16) %0) #0 {
  %2 = alloca %"class.std::__1::chrono::year", align 2
  %3 = alloca ptr, align 8
  store ptr %0, ptr %3, align 8, !tbaa !27
  %4 = load ptr, ptr %3, align 8, !tbaa !27
  %5 = call noundef i32 @_ZNSt3__113basic_istreamIcNS_11char_traitsIcEEE4peekEv(ptr noundef nonnull align 8 dereferenceable(16) %4)
  %6 = call i32 @tolower(i32 noundef %5) #23
  %7 = icmp ne i32 %6, 109
  %8 = call i1 @llvm.expect.i1(i1 %7, i1 true)
  br i1 %8, label %9, label %13

9:                                                ; preds = %1
  %10 = load ptr, ptr %3, align 8, !tbaa !27
  %11 = call i16 @_ZNSt3__16chronoL18__parse_year_valueB8ne210000ERNS_13basic_istreamIcNS_11char_traitsIcEEEE(ptr noundef nonnull align 8 dereferenceable(16) %10)
  %12 = getelementptr inbounds nuw %"class.std::__1::chrono::year", ptr %2, i32 0, i32 0
  store i16 %11, ptr %12, align 2
  br label %33

13:                                               ; preds = %1
  %14 = load ptr, ptr %3, align 8, !tbaa !27
  %15 = call noundef i32 @_ZNSt3__113basic_istreamIcNS_11char_traitsIcEEE3getEv(ptr noundef nonnull align 8 dereferenceable(16) %14)
  %16 = load ptr, ptr %3, align 8, !tbaa !27
  %17 = call noundef i32 @_ZNSt3__113basic_istreamIcNS_11char_traitsIcEEE4peekEv(ptr noundef nonnull align 8 dereferenceable(16) %16)
  %18 = call i32 @tolower(i32 noundef %17) #23
  switch i32 %18, label %32 [
    i32 105, label %19
    i32 32, label %23
    i32 97, label %26
  ]

19:                                               ; preds = %13
  %20 = load ptr, ptr %3, align 8, !tbaa !27
  %21 = call noundef i32 @_ZNSt3__113basic_istreamIcNS_11char_traitsIcEEE3getEv(ptr noundef nonnull align 8 dereferenceable(16) %20)
  %22 = load ptr, ptr %3, align 8, !tbaa !27
  call void @_ZNSt3__16chronoL6__skipB8ne210000ERNS_13basic_istreamIcNS_11char_traitsIcEEEEc(ptr noundef nonnull align 8 dereferenceable(16) %22, i8 noundef signext 110)
  br label %23

23:                                               ; preds = %13, %19
  %24 = call i16 @_ZNSt3__16chrono4year3minB8ne210000Ev() #4
  %25 = getelementptr inbounds nuw %"class.std::__1::chrono::year", ptr %2, i32 0, i32 0
  store i16 %24, ptr %25, align 2
  br label %33

26:                                               ; preds = %13
  %27 = load ptr, ptr %3, align 8, !tbaa !27
  %28 = call noundef i32 @_ZNSt3__113basic_istreamIcNS_11char_traitsIcEEE3getEv(ptr noundef nonnull align 8 dereferenceable(16) %27)
  %29 = load ptr, ptr %3, align 8, !tbaa !27
  call void @_ZNSt3__16chronoL6__skipB8ne210000ERNS_13basic_istreamIcNS_11char_traitsIcEEEEc(ptr noundef nonnull align 8 dereferenceable(16) %29, i8 noundef signext 120)
  %30 = call i16 @_ZNSt3__16chrono4year3maxB8ne210000Ev() #4
  %31 = getelementptr inbounds nuw %"class.std::__1::chrono::year", ptr %2, i32 0, i32 0
  store i16 %30, ptr %31, align 2
  br label %33

32:                                               ; preds = %13
  call void @_ZNSt3__121__throw_runtime_errorEPKc(ptr noundef @.str.16) #24
  unreachable

33:                                               ; preds = %26, %23, %9
  %34 = getelementptr inbounds nuw %"class.std::__1::chrono::year", ptr %2, i32 0, i32 0
  %35 = load i16, ptr %34, align 2
  ret i16 %35
}