; Function Attrs: mustprogress uwtable
define internal fastcc i16 @_ZNSt3__16chronoL12__parse_yearB8ne210000ERNS_13basic_istreamIcNS_11char_traitsIcEEEE(ptr noundef nonnull align 8 dereferenceable(16) %0) unnamed_addr #0 {
  %2 = tail call noundef i32 @_ZNSt3__113basic_istreamIcNS_11char_traitsIcEEE4peekEv(ptr noundef nonnull align 8 dereferenceable(16) %0)
  %3 = add i32 %2, 128
  %or.cond.i = icmp ult i32 %3, 384
  br i1 %or.cond.i, label %tolower.exit, label %tolower.exit.thread

tolower.exit:                                     ; preds = %1
  %4 = tail call ptr @__ctype_tolower_loc() #32
  %5 = load ptr, ptr %4, align 8, !tbaa !11
  %6 = sext i32 %2 to i64
  %7 = getelementptr inbounds i32, ptr %5, i64 %6
  %8 = load i32, ptr %7, align 4, !tbaa !14
  %.not = icmp eq i32 %8, 109
  br i1 %.not, label %22, label %tolower.exit.thread, !prof !167

tolower.exit.thread:                              ; preds = %1, %tolower.exit
  %9 = tail call noundef i32 @_ZNSt3__113basic_istreamIcNS_11char_traitsIcEEE4peekEv(ptr noundef nonnull align 8 dereferenceable(16) %0)
  %10 = icmp eq i32 %9, 45
  br i1 %10, label %11, label %.thread.i, !prof !168

11:                                               ; preds = %tolower.exit.thread
  %12 = tail call noundef i32 @_ZNSt3__113basic_istreamIcNS_11char_traitsIcEEE3getEv(ptr noundef nonnull align 8 dereferenceable(16) %0)
  %13 = tail call fastcc noundef i64 @_ZNSt3__16chronoL16__parse_integralB8ne210000ERNS_13basic_istreamIcNS_11char_traitsIcEEEEb(ptr noundef nonnull align 8 dereferenceable(16) %0, i1 noundef zeroext true)
  %14 = icmp sgt i64 %13, 32767
  br i1 %14, label %17, label %_ZNSt3__16chronoL18__parse_year_valueB8ne210000ERNS_13basic_istreamIcNS_11char_traitsIcEEEE.exit

.thread.i:                                        ; preds = %tolower.exit.thread
  %15 = tail call fastcc noundef i64 @_ZNSt3__16chronoL16__parse_integralB8ne210000ERNS_13basic_istreamIcNS_11char_traitsIcEEEEb(ptr noundef nonnull align 8 dereferenceable(16) %0, i1 noundef zeroext true)
  %16 = icmp sgt i64 %15, 32767
  br i1 %16, label %.thread9.i, label %_ZNSt3__16chronoL18__parse_year_valueB8ne210000ERNS_13basic_istreamIcNS_11char_traitsIcEEEE.exit

17:                                               ; preds = %11
  tail call void @_ZNSt3__121__throw_runtime_errorEPKc(ptr noundef nonnull @.str.17) #33
  unreachable

.thread9.i:                                       ; preds = %.thread.i
  tail call void @_ZNSt3__121__throw_runtime_errorEPKc(ptr noundef nonnull @.str.18) #33
  unreachable

_ZNSt3__16chronoL18__parse_year_valueB8ne210000ERNS_13basic_istreamIcNS_11char_traitsIcEEEE.exit: ; preds = %11, %.thread.i
  %18 = phi i64 [ %15, %.thread.i ], [ %13, %11 ]
  %19 = sub nsw i64 0, %18
  %20 = select i1 %10, i64 %19, i64 %18
  %21 = trunc i64 %20 to i16
  br label %37

22:                                               ; preds = %tolower.exit
  %23 = tail call noundef i32 @_ZNSt3__113basic_istreamIcNS_11char_traitsIcEEE3getEv(ptr noundef nonnull align 8 dereferenceable(16) %0)
  %24 = tail call noundef i32 @_ZNSt3__113basic_istreamIcNS_11char_traitsIcEEE4peekEv(ptr noundef nonnull align 8 dereferenceable(16) %0)
  %25 = add i32 %24, 128
  %or.cond.i8 = icmp ult i32 %25, 384
  br i1 %or.cond.i8, label %26, label %tolower.exit9

26:                                               ; preds = %22
  %27 = load ptr, ptr %4, align 8, !tbaa !11
  %28 = sext i32 %24 to i64
  %29 = getelementptr inbounds i32, ptr %27, i64 %28
  %30 = load i32, ptr %29, align 4, !tbaa !14
  br label %tolower.exit9

tolower.exit9:                                    ; preds = %22, %26
  %31 = phi i32 [ %30, %26 ], [ %24, %22 ]
  switch i32 %31, label %36 [
    i32 105, label %32
    i32 32, label %37
    i32 97, label %34
  ]

32:                                               ; preds = %tolower.exit9
  %33 = tail call noundef i32 @_ZNSt3__113basic_istreamIcNS_11char_traitsIcEEE3getEv(ptr noundef nonnull align 8 dereferenceable(16) %0)
  tail call fastcc void @_ZNSt3__16chronoL6__skipB8ne210000ERNS_13basic_istreamIcNS_11char_traitsIcEEEEc(ptr noundef nonnull align 8 dereferenceable(16) %0, i8 noundef signext 110)
  br label %37

34:                                               ; preds = %tolower.exit9
  %35 = tail call noundef i32 @_ZNSt3__113basic_istreamIcNS_11char_traitsIcEEE3getEv(ptr noundef nonnull align 8 dereferenceable(16) %0)
  tail call fastcc void @_ZNSt3__16chronoL6__skipB8ne210000ERNS_13basic_istreamIcNS_11char_traitsIcEEEEc(ptr noundef nonnull align 8 dereferenceable(16) %0, i8 noundef signext 120)
  br label %37

36:                                               ; preds = %tolower.exit9
  tail call void @_ZNSt3__121__throw_runtime_errorEPKc(ptr noundef nonnull @.str.16) #33
  unreachable

37:                                               ; preds = %tolower.exit9, %32, %34, %_ZNSt3__16chronoL18__parse_year_valueB8ne210000ERNS_13basic_istreamIcNS_11char_traitsIcEEEE.exit
  %.sroa.0.0 = phi i16 [ %21, %_ZNSt3__16chronoL18__parse_year_valueB8ne210000ERNS_13basic_istreamIcNS_11char_traitsIcEEEE.exit ], [ 32767, %34 ], [ -32767, %32 ], [ -32767, %tolower.exit9 ]
  ret i16 %.sroa.0.0
}